; Function Attrs: mustprogress uwtable
define void @_ZN6casadi8Sparsity5eraseERKSt6vectorIxSaIxEEb(ptr dead_on_unwind noalias writable sret(%"class.std::vector.3") align 8 %0, ptr noundef nonnull align 8 dereferenceable(8) %1, ptr noundef nonnull align 8 dereferenceable(24) %2, i1 noundef zeroext %3) local_unnamed_addr #3 align 2 personality ptr @__gxx_personality_v0 {
  %5 = alloca %"class.casadi::Sparsity", align 8
  tail call void @llvm.memset.p0.i64(ptr noundef nonnull align 8 dereferenceable(24) %0, i8 0, i64 24, i1 false)
  %6 = invoke noundef ptr @_ZNK6casadi12SharedObjectptEv(ptr noundef nonnull align 8 dereferenceable(8) %1)
          to label %_ZNK6casadi8SparsityptEv.exit unwind label %9

_ZNK6casadi8SparsityptEv.exit:                    ; preds = %4
  invoke void @_ZNK6casadi16SparsityInternal6_eraseERKSt6vectorIxSaIxEEbRS3_(ptr dead_on_unwind nonnull writable sret(%"class.casadi::Sparsity") align 8 %5, ptr noundef nonnull align 8 dereferenceable(56) %6, ptr noundef nonnull align 8 dereferenceable(24) %2, i1 noundef zeroext %3, ptr noundef nonnull align 8 dereferenceable(24) %0)
          to label %7 unwind label %9

7:                                                ; preds = %_ZNK6casadi8SparsityptEv.exit
  %8 = invoke noundef nonnull align 8 dereferenceable(8) ptr @_ZN6casadi12SharedObjectaSERKS0_(ptr noundef nonnull align 8 dereferenceable(8) %1, ptr noundef nonnull align 8 dereferenceable(8) %5)
          to label %_ZN6casadi8SparsityaSEOS0_.exit unwind label %11

_ZN6casadi8SparsityaSEOS0_.exit:                  ; preds = %7
  call void @_ZN6casadi12SharedObjectD2Ev(ptr noundef nonnull align 8 dereferenceable(8) %5) #24
  ret void

9:                                                ; preds = %4, %_ZNK6casadi8SparsityptEv.exit
  %10 = landingpad { ptr, i32 }
          cleanup
  br label %13

11:                                               ; preds = %7
  %12 = landingpad { ptr, i32 }
          cleanup
  call void @_ZN6casadi12SharedObjectD2Ev(ptr noundef nonnull align 8 dereferenceable(8) %5) #24
  br label %13

13:                                               ; preds = %11, %9
  %.pn = phi { ptr, i32 } [ %12, %11 ], [ %10, %9 ]
  %14 = load ptr, ptr %0, align 8
  %.not.i.i.i = icmp eq ptr %14, null
  br i1 %.not.i.i.i, label %_ZNSt6vectorIxSaIxEED2Ev.exit, label %15

15:                                               ; preds = %13
  call void @_ZdlPv(ptr noundef nonnull %14) #26
  br label %_ZNSt6vectorIxSaIxEED2Ev.exit

_ZNSt6vectorIxSaIxEED2Ev.exit:                    ; preds = %13, %15
  resume { ptr, i32 } %.pn
}